; Function Attrs: uwtable
define void @_ZN7rocksdb15TimedFileSystem8LinkFileERKNSt7__cxx1112basic_stringIcSt11char_traitsIcESaIcEEES8_RKNS_9IOOptionsEPNS_14IODebugContextE(ptr noalias sret(%"class.rocksdb::IOStatus") align 8 %agg.result, ptr nocapture noundef nonnull readonly align 8 dereferenceable(48) %this, ptr noundef nonnull align 8 dereferenceable(32) %src, ptr noundef nonnull align 8 dereferenceable(32) %dst, ptr noundef nonnull align 8 dereferenceable(83) %options, ptr noundef %dbg) unnamed_addr #2 align 2 personality ptr @__gxx_personality_v0 {
entry:
  %perf_step_timer_env_link_file_nanos = alloca %"class.rocksdb::PerfStepTimer", align 8
  br i1 icmp ne (ptr @_ZTHN7rocksdb12perf_contextE, ptr null), label %0, label %_ZTWN7rocksdb12perf_contextE.exit

0:                                                ; preds = %entry
  tail call void @_ZTHN7rocksdb12perf_contextE()
  br label %_ZTWN7rocksdb12perf_contextE.exit

_ZTWN7rocksdb12perf_contextE.exit:                ; preds = %entry, %0
  %1 = tail call noundef align 8 ptr @llvm.threadlocal.address.p0(ptr align 8 @_ZN7rocksdb12perf_contextE)
  %env_link_file_nanos = getelementptr inbounds i8, ptr %1, i64 696
  br i1 icmp ne (ptr @_ZTHN7rocksdb10perf_levelE, ptr null), label %2, label %_ZTWN7rocksdb10perf_levelE.exit.i

2:                                                ; preds = %_ZTWN7rocksdb12perf_contextE.exit
  tail call void @_ZTHN7rocksdb10perf_levelE()
  br label %_ZTWN7rocksdb10perf_levelE.exit.i

_ZTWN7rocksdb10perf_levelE.exit.i:                ; preds = %2, %_ZTWN7rocksdb12perf_contextE.exit
  %3 = tail call noundef align 1 ptr @llvm.threadlocal.address.p0(ptr align 1 @_ZN7rocksdb10perf_levelE)
  %4 = load i8, ptr %3, align 1
  %cmp.i = icmp ugt i8 %4, 2
  %frombool3.i = zext i1 %cmp.i to i8
  store i8 %frombool3.i, ptr %perf_step_timer_env_link_file_nanos, align 8
  %use_cpu_time_.i = getelementptr inbounds i8, ptr %perf_step_timer_env_link_file_nanos, i64 1
  store i8 0, ptr %use_cpu_time_.i, align 1
  %ticker_type_.i = getelementptr inbounds i8, ptr %perf_step_timer_env_link_file_nanos, i64 4
  store i32 0, ptr %ticker_type_.i, align 4
  br i1 %cmp.i, label %if.then.i, label %_ZN7rocksdb13PerfStepTimerC2EPmPNS_11SystemClockEbNS_9PerfLevelEPNS_10StatisticsEj.exit

_ZN7rocksdb13PerfStepTimerC2EPmPNS_11SystemClockEbNS_9PerfLevelEPNS_10StatisticsEj.exit: ; preds = %_ZTWN7rocksdb10perf_levelE.exit.i
  %clock_.i = getelementptr inbounds i8, ptr %perf_step_timer_env_link_file_nanos, i64 8
  %start_.i = getelementptr inbounds i8, ptr %perf_step_timer_env_link_file_nanos, i64 16
  %metric_.i = getelementptr inbounds i8, ptr %perf_step_timer_env_link_file_nanos, i64 24
  call void @llvm.memset.p0.i64(ptr noundef nonnull align 8 dereferenceable(16) %clock_.i, i8 0, i64 16, i1 false)
  store ptr %env_link_file_nanos, ptr %metric_.i, align 8
  %statistics_.i = getelementptr inbounds i8, ptr %perf_step_timer_env_link_file_nanos, i64 32
  store ptr null, ptr %statistics_.i, align 8
  br label %invoke.cont

if.then.i:                                        ; preds = %_ZTWN7rocksdb10perf_levelE.exit.i
  %call.i = tail call noundef nonnull align 8 dereferenceable(16) ptr @_ZN7rocksdb11SystemClock7DefaultEv()
  %5 = load ptr, ptr %call.i, align 8
  %clock_.i5 = getelementptr inbounds i8, ptr %perf_step_timer_env_link_file_nanos, i64 8
  store ptr %5, ptr %clock_.i5, align 8
  %start_.i6 = getelementptr inbounds i8, ptr %perf_step_timer_env_link_file_nanos, i64 16
  store i64 0, ptr %start_.i6, align 8
  %metric_.i7 = getelementptr inbounds i8, ptr %perf_step_timer_env_link_file_nanos, i64 24
  store ptr %env_link_file_nanos, ptr %metric_.i7, align 8
  %statistics_.i8 = getelementptr inbounds i8, ptr %perf_step_timer_env_link_file_nanos, i64 32
  store ptr null, ptr %statistics_.i8, align 8
  %vtable.i.i = load ptr, ptr %5, align 8
  %vfn4.i.i = getelementptr inbounds i8, ptr %vtable.i.i, i64 160
  %6 = load ptr, ptr %vfn4.i.i, align 8
  %call5.i.i3 = invoke noundef i64 %6(ptr noundef nonnull align 8 dereferenceable(32) %5)
          to label %call5.i.i.noexc unwind label %lpad

call5.i.i.noexc:                                  ; preds = %if.then.i
  store i64 %call5.i.i3, ptr %start_.i6, align 8
  br label %invoke.cont

invoke.cont:                                      ; preds = %_ZN7rocksdb13PerfStepTimerC2EPmPNS_11SystemClockEbNS_9PerfLevelEPNS_10StatisticsEj.exit, %call5.i.i.noexc
  %start_.i9 = phi ptr [ %start_.i6, %call5.i.i.noexc ], [ %start_.i, %_ZN7rocksdb13PerfStepTimerC2EPmPNS_11SystemClockEbNS_9PerfLevelEPNS_10StatisticsEj.exit ]
  %7 = phi ptr [ %5, %call5.i.i.noexc ], [ null, %_ZN7rocksdb13PerfStepTimerC2EPmPNS_11SystemClockEbNS_9PerfLevelEPNS_10StatisticsEj.exit ]
  %8 = phi i64 [ %call5.i.i3, %call5.i.i.noexc ], [ 0, %_ZN7rocksdb13PerfStepTimerC2EPmPNS_11SystemClockEbNS_9PerfLevelEPNS_10StatisticsEj.exit ]
  %target_.i = getelementptr inbounds i8, ptr %this, i64 32
  %9 = load ptr, ptr %target_.i, align 8, !noalias !52
  %vtable.i = load ptr, ptr %9, align 8, !noalias !52
  %vfn.i = getelementptr inbounds i8, ptr %vtable.i, i64 320
  %10 = load ptr, ptr %vfn.i, align 8, !noalias !52
  invoke void %10(ptr sret(%"class.rocksdb::IOStatus") align 8 %agg.result, ptr noundef nonnull align 8 dereferenceable(32) %9, ptr noundef nonnull align 8 dereferenceable(32) %src, ptr noundef nonnull align 8 dereferenceable(32) %dst, ptr noundef nonnull align 8 dereferenceable(83) %options, ptr noundef %dbg)
          to label %invoke.cont2 unwind label %lpad

invoke.cont2:                                     ; preds = %invoke.cont
  %tobool.not.i.i4 = icmp eq i64 %8, 0
  br i1 %tobool.not.i.i4, label %_ZN7rocksdb13PerfStepTimerD2Ev.exit, label %if.then.i.i

if.then.i.i:                                      ; preds = %invoke.cont2
  %vtable.i.i.i = load ptr, ptr %7, align 8
  %vfn4.i.i.i = getelementptr inbounds i8, ptr %vtable.i.i.i, i64 160
  %11 = load ptr, ptr %vfn4.i.i.i, align 8
  %call5.i.i1.i = invoke noundef i64 %11(ptr noundef nonnull align 8 dereferenceable(32) %7)
          to label %call5.i.i.noexc.i unwind label %terminate.lpad.i

call5.i.i.noexc.i:                                ; preds = %if.then.i.i
  br i1 %cmp.i, label %if.then4.i.i, label %if.end7.i.i

if.then4.i.i:                                     ; preds = %call5.i.i.noexc.i
  %sub.i.i = sub i64 %call5.i.i1.i, %8
  %12 = load i64, ptr %env_link_file_nanos, align 8
  %add.i.i = add i64 %12, %sub.i.i
  store i64 %add.i.i, ptr %env_link_file_nanos, align 8
  br label %if.end7.i.i

if.end7.i.i:                                      ; preds = %call5.i.i.noexc.i, %if.then4.i.i
  store i64 0, ptr %start_.i9, align 8
  br label %_ZN7rocksdb13PerfStepTimerD2Ev.exit

terminate.lpad.i:                                 ; preds = %if.then.i.i
  %13 = landingpad { ptr, i32 }
          catch ptr null
  %14 = extractvalue { ptr, i32 } %13, 0
  tail call void @__clang_call_terminate(ptr %14) #13
  unreachable

_ZN7rocksdb13PerfStepTimerD2Ev.exit:              ; preds = %invoke.cont2, %if.end7.i.i
  ret void

lpad:                                             ; preds = %invoke.cont, %if.then.i
  %15 = landingpad { ptr, i32 }
          cleanup
  call void @_ZN7rocksdb13PerfStepTimerD2Ev(ptr noundef nonnull align 8 dereferenceable(40) %perf_step_timer_env_link_file_nanos) #14
  resume { ptr, i32 } %15
}